target datalayout = "e-m:e-p270:32:32-p271:32:32-p272:64:64-i64:64-i128:128-f80:128-n8:16:32:64-S128"
target triple = "x86_64-pc-linux-gnu"

%struct.AVFilterLink = type { ptr, ptr, ptr, ptr, i32, i32, i32, i32, %struct.AVRational, i32, i32, i32, %struct.AVChannelLayout, %struct.AVRational, ptr, i32, %struct.AVFilterFormatsConfig, %struct.AVFilterFormatsConfig }
%struct.AVChannelLayout = type { i32, i32, %union.anon.1, ptr }
%union.anon.1 = type { i64 }
%struct.AVRational = type { i32, i32 }
%struct.AVFilterFormatsConfig = type { ptr, ptr, ptr, ptr, ptr }
%struct.FilterLink = type { %struct.AVFilterLink, ptr, i64, i64, i32, i32, i64, i64, i64, i64, %struct.AVRational, ptr }

@.str.224 = private unnamed_addr constant [47 x i8] c"config %s time_base: %d/%d, frame_rate: %d/%d\0A\00", align 1
@.str.225 = private unnamed_addr constant [4 x i8] c"out\00", align 1
@.str.226 = private unnamed_addr constant [3 x i8] c"in\00", align 1

; Function Attrs: inlinehint nounwind uwtable
define internal ptr @ff_filter_link(ptr noundef %0) #2 {
  %2 = alloca ptr, align 8
  store ptr %0, ptr %2, align 8, !tbaa !4
  %3 = load ptr, ptr %2, align 8, !tbaa !4
  ret ptr %3
}

; Function Attrs: nounwind uwtable
define internal i32 @config_props(ptr noundef %0, ptr noundef %1, i32 noundef %2) #0 {
  %4 = alloca ptr, align 8
  %5 = alloca ptr, align 8
  %6 = alloca i32, align 4
  %7 = alloca ptr, align 8
  store ptr %0, ptr %4, align 8, !tbaa !25
  store ptr %1, ptr %5, align 8, !tbaa !4
  store i32 %2, ptr %6, align 4, !tbaa !41
  call void @llvm.lifetime.start.p0(i64 8, ptr %7) #14
  %8 = load ptr, ptr %5, align 8, !tbaa !4
  %9 = call ptr @ff_filter_link(ptr noundef %8)
  store ptr %9, ptr %7, align 8, !tbaa !11
  %10 = load ptr, ptr %4, align 8, !tbaa !25
  %11 = load i32, ptr %6, align 4, !tbaa !41
  %12 = icmp ne i32 %11, 0
  %13 = select i1 %12, ptr @.str.225, ptr @.str.226
  %14 = load ptr, ptr %5, align 8, !tbaa !4
  %15 = getelementptr inbounds nuw %struct.AVFilterLink, ptr %14, i32 0, i32 13
  %16 = getelementptr inbounds nuw %struct.AVRational, ptr %15, i32 0, i32 0
  %17 = load i32, ptr %16, align 8, !tbaa !362
  %18 = load ptr, ptr %5, align 8, !tbaa !4
  %19 = getelementptr inbounds nuw %struct.AVFilterLink, ptr %18, i32 0, i32 13
  %20 = getelementptr inbounds nuw %struct.AVRational, ptr %19, i32 0, i32 1
  %21 = load i32, ptr %20, align 4, !tbaa !363
  %22 = load ptr, ptr %7, align 8, !tbaa !11
  %23 = getelementptr inbounds nuw %struct.FilterLink, ptr %22, i32 0, i32 10
  %24 = getelementptr inbounds nuw %struct.AVRational, ptr %23, i32 0, i32 0
  %25 = load i32, ptr %24, align 8, !tbaa !364
  %26 = load ptr, ptr %7, align 8, !tbaa !11
  %27 = getelementptr inbounds nuw %struct.FilterLink, ptr %26, i32 0, i32 10
  %28 = getelementptr inbounds nuw %struct.AVRational, ptr %27, i32 0, i32 1
  %29 = load i32, ptr %28, align 4, !tbaa !365
  call void (ptr, i32, ptr, ...) @av_log(ptr noundef %10, i32 noundef 32, ptr noundef @.str.224, ptr noundef %13, i32 noundef %17, i32 noundef %21, i32 noundef %25, i32 noundef %29)
  call void @llvm.lifetime.end.p0(i64 8, ptr %7) #14
  ret i32 0
}

; Function Attrs: nounwind uwtable
define internal i32 @config_props_out(ptr noundef %0) #0 {
  %2 = alloca ptr, align 8
  %3 = alloca ptr, align 8
  store ptr %0, ptr %2, align 8, !tbaa !4
  call void @llvm.lifetime.start.p0(i64 8, ptr %3) #14
  %4 = load ptr, ptr %2, align 8, !tbaa !4
  %5 = getelementptr inbounds nuw %struct.AVFilterLink, ptr %4, i32 0, i32 0
  %6 = load ptr, ptr %5, align 8, !tbaa !366
  store ptr %6, ptr %3, align 8, !tbaa !25
  %7 = load ptr, ptr %3, align 8, !tbaa !25
  %8 = load ptr, ptr %2, align 8, !tbaa !4
  %9 = call i32 @config_props(ptr noundef %7, ptr noundef %8, i32 noundef 1)
  call void @llvm.lifetime.end.p0(i64 8, ptr %3) #14
  ret i32 %9
}