; Function Attrs: nounwind uwtable
define internal noundef i32 @config_props_out(ptr noundef readonly captures(none) %0) #0 {
  %2 = load ptr, ptr %0, align 8, !tbaa !300
  %3 = getelementptr inbounds nuw i8, ptr %0, i64 96
  %4 = load i32, ptr %3, align 8, !tbaa !296
  %5 = getelementptr inbounds nuw i8, ptr %0, i64 100
  %6 = load i32, ptr %5, align 4, !tbaa !297
  %7 = getelementptr inbounds nuw i8, ptr %0, i64 264
  %8 = load i32, ptr %7, align 8, !tbaa !298
  %9 = getelementptr inbounds nuw i8, ptr %0, i64 268
  %10 = load i32, ptr %9, align 4, !tbaa !299
  tail call void (ptr, i32, ptr, ...) @av_log(ptr noundef %2, i32 noundef 32, ptr noundef nonnull @.str.224, ptr noundef nonnull @.str.225, i32 noundef %4, i32 noundef %6, i32 noundef %8, i32 noundef %10) #11
  ret i32 0
}